; Function Attrs: nounwind uwtable
define internal fastcc noundef zeroext i1 @_equalJsonConstructorExpr(ptr noundef nonnull readonly captures(none) %0, ptr noundef nonnull readonly captures(none) %1) unnamed_addr #0 {
  %3 = getelementptr inbounds nuw i8, ptr %0, i64 4
  %4 = load i32, ptr %3, align 4
  %5 = getelementptr inbounds nuw i8, ptr %1, i64 4
  %6 = load i32, ptr %5, align 4
  %.not = icmp eq i32 %4, %6
  br i1 %.not, label %7, label %41

7:                                                ; preds = %2
  %8 = getelementptr inbounds nuw i8, ptr %0, i64 8
  %9 = load ptr, ptr %8, align 8
  %10 = getelementptr inbounds nuw i8, ptr %1, i64 8
  %11 = load ptr, ptr %10, align 8
  %12 = tail call zeroext i1 @equal(ptr noundef %9, ptr noundef %11)
  br i1 %12, label %13, label %41

13:                                               ; preds = %7
  %14 = getelementptr inbounds nuw i8, ptr %0, i64 16
  %15 = load ptr, ptr %14, align 8
  %16 = getelementptr inbounds nuw i8, ptr %1, i64 16
  %17 = load ptr, ptr %16, align 8
  %18 = tail call zeroext i1 @equal(ptr noundef %15, ptr noundef %17)
  br i1 %18, label %19, label %41

19:                                               ; preds = %13
  %20 = getelementptr inbounds nuw i8, ptr %0, i64 24
  %21 = load ptr, ptr %20, align 8
  %22 = getelementptr inbounds nuw i8, ptr %1, i64 24
  %23 = load ptr, ptr %22, align 8
  %24 = tail call zeroext i1 @equal(ptr noundef %21, ptr noundef %23)
  br i1 %24, label %25, label %41

25:                                               ; preds = %19
  %26 = getelementptr inbounds nuw i8, ptr %0, i64 32
  %27 = load ptr, ptr %26, align 8
  %28 = getelementptr inbounds nuw i8, ptr %1, i64 32
  %29 = load ptr, ptr %28, align 8
  %30 = tail call zeroext i1 @equal(ptr noundef %27, ptr noundef %29)
  br i1 %30, label %31, label %41

31:                                               ; preds = %25
  %32 = getelementptr inbounds nuw i8, ptr %0, i64 40
  %33 = load i8, ptr %32, align 8, !range !4, !noundef !5
  %34 = getelementptr inbounds nuw i8, ptr %1, i64 40
  %35 = load i8, ptr %34, align 8, !range !4, !noundef !5
  %.not15 = icmp eq i8 %33, %35
  br i1 %.not15, label %36, label %41

36:                                               ; preds = %31
  %37 = getelementptr inbounds nuw i8, ptr %0, i64 41
  %38 = load i8, ptr %37, align 1, !range !4, !noundef !5
  %39 = getelementptr inbounds nuw i8, ptr %1, i64 41
  %40 = load i8, ptr %39, align 1, !range !4, !noundef !5
  %.not16 = icmp eq i8 %38, %40
  br label %41

41:                                               ; preds = %36, %31, %25, %19, %13, %7, %2
  %.0 = phi i1 [ false, %2 ], [ false, %7 ], [ false, %13 ], [ false, %19 ], [ false, %25 ], [ false, %31 ], [ %.not16, %36 ]
  ret i1 %.0
}